; Function Attrs: nounwind uwtable
define void @Fra_AddClausesSuper(ptr noundef readonly captures(none) %0, ptr noundef readonly captures(none) %1, ptr noundef readonly captures(none) %2) local_unnamed_addr #0 {
  %4 = getelementptr i8, ptr %2, i64 4
  %.val43 = load i32, ptr %4, align 4, !tbaa !28
  %5 = add nsw i32 %.val43, 1
  %6 = sext i32 %5 to i64
  %7 = shl nsw i64 %6, 2
  %8 = tail call noalias ptr @malloc(i64 noundef %7) #8
  %9 = icmp sgt i32 %.val43, 0
  br i1 %9, label %.lr.ph, label %.critedge._crit_edge

.lr.ph:                                           ; preds = %3
  %10 = getelementptr i8, ptr %2, i64 8
  %11 = getelementptr i8, ptr %1, i64 36
  %12 = getelementptr i8, ptr %1, i64 40
  %13 = getelementptr inbounds nuw i8, ptr %8, i64 4
  %14 = getelementptr inbounds nuw i8, ptr %0, i64 104
  %15 = getelementptr inbounds nuw i8, ptr %8, i64 8
  br label %18

.critedge.preheader:                              ; preds = %18
  %16 = icmp sgt i32 %.val44, 0
  br i1 %16, label %.lr.ph51, label %.critedge._crit_edge

.lr.ph51:                                         ; preds = %.critedge.preheader
  %17 = getelementptr i8, ptr %2, i64 8
  %.val47 = load ptr, ptr %17, align 8, !tbaa !30
  %wide.trip.count = zext nneg i32 %.val44 to i64
  br label %.critedge

18:                                               ; preds = %.lr.ph, %18
  %indvars.iv = phi i64 [ 0, %.lr.ph ], [ %indvars.iv.next, %18 ]
  %.val46 = load ptr, ptr %10, align 8, !tbaa !30
  %19 = getelementptr inbounds nuw ptr, ptr %.val46, i64 %indvars.iv
  %20 = load ptr, ptr %19, align 8, !tbaa !31
  %21 = ptrtoint ptr %20 to i64
  %22 = and i64 %21, -2
  %23 = inttoptr i64 %22 to ptr
  %24 = getelementptr i8, ptr %23, i64 36
  %.val41 = load i32, ptr %24, align 4, !tbaa !3
  %25 = getelementptr i8, ptr %23, i64 40
  %.val42 = load ptr, ptr %25, align 8, !tbaa !10
  %26 = getelementptr i8, ptr %.val42, i64 152
  %.val42.val = load ptr, ptr %26, align 8, !tbaa !11
  %27 = sext i32 %.val41 to i64
  %28 = getelementptr inbounds i32, ptr %.val42.val, i64 %27
  %29 = load i32, ptr %28, align 4, !tbaa !25
  %30 = trunc i64 %21 to i32
  %31 = and i32 %30, 1
  %32 = shl nsw i32 %29, 1
  %33 = or disjoint i32 %32, %31
  store i32 %33, ptr %8, align 4, !tbaa !25
  %.val39 = load i32, ptr %11, align 4, !tbaa !3
  %.val40 = load ptr, ptr %12, align 8, !tbaa !10
  %34 = getelementptr i8, ptr %.val40, i64 152
  %.val40.val = load ptr, ptr %34, align 8, !tbaa !11
  %35 = sext i32 %.val39 to i64
  %36 = getelementptr inbounds i32, ptr %.val40.val, i64 %35
  %37 = load i32, ptr %36, align 4, !tbaa !25
  %38 = shl nsw i32 %37, 1
  %39 = or disjoint i32 %38, 1
  store i32 %39, ptr %13, align 4, !tbaa !25
  %40 = load ptr, ptr %14, align 8, !tbaa !27
  %41 = tail call i32 @sat_solver_addclause(ptr noundef %40, ptr noundef nonnull %8, ptr noundef nonnull %15) #7
  %indvars.iv.next = add nuw nsw i64 %indvars.iv, 1
  %.val44 = load i32, ptr %4, align 4, !tbaa !28
  %42 = sext i32 %.val44 to i64
  %43 = icmp slt i64 %indvars.iv.next, %42
  br i1 %43, label %18, label %.critedge.preheader, !llvm.loop !32

.critedge:                                        ; preds = %.lr.ph51, %.critedge
  %indvars.iv54 = phi i64 [ 0, %.lr.ph51 ], [ %indvars.iv.next55, %.critedge ]
  %44 = getelementptr inbounds nuw ptr, ptr %.val47, i64 %indvars.iv54
  %45 = load ptr, ptr %44, align 8, !tbaa !31
  %46 = ptrtoint ptr %45 to i64
  %47 = and i64 %46, -2
  %48 = inttoptr i64 %47 to ptr
  %49 = getelementptr i8, ptr %48, i64 36
  %.val37 = load i32, ptr %49, align 4, !tbaa !3
  %50 = getelementptr i8, ptr %48, i64 40
  %.val38 = load ptr, ptr %50, align 8, !tbaa !10
  %51 = getelementptr i8, ptr %.val38, i64 152
  %.val38.val = load ptr, ptr %51, align 8, !tbaa !11
  %52 = sext i32 %.val37 to i64
  %53 = getelementptr inbounds i32, ptr %.val38.val, i64 %52
  %54 = load i32, ptr %53, align 4, !tbaa !25
  %55 = trunc i64 %46 to i32
  %56 = and i32 %55, 1
  %57 = shl nsw i32 %54, 1
  %58 = or disjoint i32 %57, %56
  %59 = xor i32 %58, 1
  %60 = getelementptr inbounds nuw i32, ptr %8, i64 %indvars.iv54
  store i32 %59, ptr %60, align 4, !tbaa !25
  %indvars.iv.next55 = add nuw nsw i64 %indvars.iv54, 1
  %exitcond.not = icmp eq i64 %indvars.iv.next55, %wide.trip.count
  br i1 %exitcond.not, label %.critedge._crit_edge, label %.critedge, !llvm.loop !34

.critedge._crit_edge:                             ; preds = %.critedge, %3, %.critedge.preheader
  %61 = getelementptr i8, ptr %1, i64 36
  %.val = load i32, ptr %61, align 4, !tbaa !3
  %62 = getelementptr i8, ptr %1, i64 40
  %.val36 = load ptr, ptr %62, align 8, !tbaa !10
  %63 = getelementptr i8, ptr %.val36, i64 152
  %.val36.val = load ptr, ptr %63, align 8, !tbaa !11
  %64 = sext i32 %.val to i64
  %65 = getelementptr inbounds i32, ptr %.val36.val, i64 %64
  %66 = load i32, ptr %65, align 4, !tbaa !25
  %67 = shl nsw i32 %66, 1
  %68 = sext i32 %.val43 to i64
  %69 = getelementptr inbounds i32, ptr %8, i64 %68
  store i32 %67, ptr %69, align 4, !tbaa !25
  %70 = getelementptr inbounds nuw i8, ptr %0, i64 104
  %71 = load ptr, ptr %70, align 8, !tbaa !27
  %72 = getelementptr inbounds i32, ptr %8, i64 %6
  %73 = tail call i32 @sat_solver_addclause(ptr noundef %71, ptr noundef %8, ptr noundef %72) #7
  tail call void @free(ptr noundef %8) #7
  ret void
}